target datalayout = "e-m:e-p270:32:32-p271:32:32-p272:64:64-i64:64-i128:128-f80:128-n8:16:32:64-S128"
target triple = "x86_64-pc-linux-gnu"

%"class.pxrInternal_v0_24__pxrReserved__::UsdEditTarget" = type { %"class.pxrInternal_v0_24__pxrReserved__::TfWeakPtr", %"class.pxrInternal_v0_24__pxrReserved__::PcpMapFunction" }
%"class.pxrInternal_v0_24__pxrReserved__::TfWeakPtr" = type { ptr, %"class.pxrInternal_v0_24__pxrReserved__::TfRefPtr" }
%"class.pxrInternal_v0_24__pxrReserved__::TfRefPtr" = type { ptr }
%"class.pxrInternal_v0_24__pxrReserved__::PcpMapFunction" = type { %"struct.pxrInternal_v0_24__pxrReserved__::PcpMapFunction::_Data", %"class.pxrInternal_v0_24__pxrReserved__::SdfLayerOffset" }
%"struct.pxrInternal_v0_24__pxrReserved__::PcpMapFunction::_Data" = type <{ %union.anon, i32, i8, [3 x i8] }>
%union.anon = type { %"class.std::shared_ptr", [16 x i8] }
%"class.std::shared_ptr" = type { %"class.std::__shared_ptr" }
%"class.std::__shared_ptr" = type { ptr, %"class.std::__shared_count" }
%"class.std::__shared_count" = type { ptr }
%"class.pxrInternal_v0_24__pxrReserved__::SdfLayerOffset" = type { double, double }
%"class.pxrInternal_v0_24__pxrReserved__::TfRefBase" = type <{ ptr, %"struct.std::atomic", [4 x i8] }>
%"struct.std::atomic" = type { %"struct.std::__atomic_base" }
%"struct.std::__atomic_base" = type { i32 }

; Function Attrs: mustprogress nounwind uwtable
define linkonce_odr noundef nonnull align 4 dereferenceable(4) ptr @_ZNK32pxrInternal_v0_24__pxrReserved__9TfRefBase12_GetRefCountEv(ptr noundef nonnull align 8 dereferenceable(12) %0) #1 comdat align 2 {
  %2 = alloca ptr, align 8
  store ptr %0, ptr %2, align 8
  %3 = load ptr, ptr %2, align 8
  %4 = getelementptr inbounds nuw %"class.pxrInternal_v0_24__pxrReserved__::TfRefBase", ptr %3, i32 0, i32 1
  ret ptr %4
}

; Function Attrs: mustprogress nounwind uwtable
define linkonce_odr void @_ZN32pxrInternal_v0_24__pxrReserved__24Tf_RefPtrTracker_LastRefEPKvS1_(ptr noundef %0, ptr noundef %1) #1 comdat {
  %3 = alloca ptr, align 8
  %4 = alloca ptr, align 8
  store ptr %0, ptr %3, align 8
  store ptr %1, ptr %4, align 8
  ret void
}

; Function Attrs: mustprogress uwtable
define linkonce_odr noundef zeroext i1 @_ZN32pxrInternal_v0_24__pxrReserved__17Tf_RefPtr_Counter9RemoveRefEPKNS_9TfRefBaseE(ptr noundef %0) #0 comdat align 2 {
  %2 = alloca ptr, align 8
  %3 = alloca i32, align 4
  %4 = alloca i32, align 4
  %5 = alloca i32, align 4
  %6 = alloca i32, align 4
  %7 = alloca i1, align 1
  %8 = alloca ptr, align 8
  store ptr %0, ptr %8, align 8
  %9 = load ptr, ptr %8, align 8
  %10 = icmp ne ptr %9, null
  %11 = xor i1 %10, true
  br i1 %11, label %12, label %13

12:                                               ; preds = %1
  store i1 false, ptr %7, align 1
  br label %37

13:                                               ; preds = %1
  %14 = load ptr, ptr %8, align 8
  %15 = call noundef nonnull align 4 dereferenceable(4) ptr @_ZNK32pxrInternal_v0_24__pxrReserved__9TfRefBase12_GetRefCountEv(ptr noundef nonnull align 8 dereferenceable(12) %14)
  store ptr %15, ptr %2, align 8
  store i32 1, ptr %3, align 4
  store i32 3, ptr %4, align 4
  %16 = load ptr, ptr %2, align 8
  %17 = load i32, ptr %4, align 4
  %18 = load i32, ptr %3, align 4
  store i32 %18, ptr %5, align 4
  switch i32 %17, label %19 [
    i32 1, label %22
    i32 2, label %22
    i32 3, label %25
    i32 4, label %28
    i32 5, label %31
  ]

19:                                               ; preds = %13
  %20 = load i32, ptr %5, align 4
  %21 = atomicrmw sub ptr %16, i32 %20 monotonic, align 4
  store i32 %21, ptr %6, align 4
  br label %34

22:                                               ; preds = %13, %13
  %23 = load i32, ptr %5, align 4
  %24 = atomicrmw sub ptr %16, i32 %23 acquire, align 4
  store i32 %24, ptr %6, align 4
  br label %34

25:                                               ; preds = %13
  %26 = load i32, ptr %5, align 4
  %27 = atomicrmw sub ptr %16, i32 %26 release, align 4
  store i32 %27, ptr %6, align 4
  br label %34

28:                                               ; preds = %13
  %29 = load i32, ptr %5, align 4
  %30 = atomicrmw sub ptr %16, i32 %29 acq_rel, align 4
  store i32 %30, ptr %6, align 4
  br label %34

31:                                               ; preds = %13
  %32 = load i32, ptr %5, align 4
  %33 = atomicrmw sub ptr %16, i32 %32 seq_cst, align 4
  store i32 %33, ptr %6, align 4
  br label %34

34:                                               ; preds = %31, %28, %25, %22, %19
  %35 = load i32, ptr %6, align 4
  %36 = icmp eq i32 %35, 1
  store i1 %36, ptr %7, align 1
  br label %37

37:                                               ; preds = %34, %12
  %38 = load i1, ptr %7, align 1
  ret i1 %38
}

; Function Attrs: noreturn nounwind uwtable
define linkonce_odr hidden void @__clang_call_terminate(ptr noundef %0) #4 comdat {
  %2 = call ptr @__cxa_begin_catch(ptr %0) #12
  call void @_ZSt9terminatev() #13
  unreachable
}

; Function Attrs: mustprogress uwtable
define linkonce_odr void @_ZNK32pxrInternal_v0_24__pxrReserved__8TfRefPtrINS_10Tf_RemnantEE10_RemoveRefEPKNS_9TfRefBaseE(ptr noundef nonnull align 8 dereferenceable(8) %0, ptr noundef %1) #0 comdat align 2 {
  %3 = alloca ptr, align 8
  %4 = alloca ptr, align 8
  store ptr %0, ptr %3, align 8
  store ptr %1, ptr %4, align 8
  %5 = load ptr, ptr %3, align 8
  %6 = load ptr, ptr %4, align 8
  %7 = call noundef zeroext i1 @_ZN32pxrInternal_v0_24__pxrReserved__17Tf_RefPtr_Counter9RemoveRefEPKNS_9TfRefBaseE(ptr noundef %6)
  br i1 %7, label %8, label %17

8:                                                ; preds = %2
  %9 = load ptr, ptr %4, align 8
  call void @_ZN32pxrInternal_v0_24__pxrReserved__24Tf_RefPtrTracker_LastRefEPKvS1_(ptr noundef %5, ptr noundef %9)
  %10 = load ptr, ptr %4, align 8
  %11 = icmp eq ptr %10, null
  br i1 %11, label %16, label %12

12:                                               ; preds = %8
  %13 = load ptr, ptr %10, align 8
  %14 = getelementptr inbounds ptr, ptr %13, i64 1
  %15 = load ptr, ptr %14, align 8
  call void %15(ptr noundef nonnull align 8 dereferenceable(12) %10) #12
  br label %16

16:                                               ; preds = %12, %8
  br label %17

17:                                               ; preds = %16, %2
  ret void
}

; Function Attrs: mustprogress nounwind uwtable
define linkonce_odr void @_ZN32pxrInternal_v0_24__pxrReserved__23Tf_RefPtrTracker_DeleteEPKvS1_(ptr noundef %0, ptr noundef %1) #1 comdat {
  %3 = alloca ptr, align 8
  %4 = alloca ptr, align 8
  store ptr %0, ptr %3, align 8
  store ptr %1, ptr %4, align 8
  ret void
}

; Function Attrs: mustprogress nounwind uwtable
define linkonce_odr void @_ZN32pxrInternal_v0_24__pxrReserved__20Tf_RefPtrTracker_NewEPKvS1_(ptr noundef %0, ptr noundef %1) #1 comdat {
  %3 = alloca ptr, align 8
  %4 = alloca ptr, align 8
  store ptr %0, ptr %3, align 8
  store ptr %1, ptr %4, align 8
  ret void
}

; Function Attrs: mustprogress nounwind uwtable
define linkonce_odr noundef ptr @_ZNK32pxrInternal_v0_24__pxrReserved__8TfRefPtrINS_10Tf_RemnantEE21_GetObjectForTrackingEv(ptr noundef nonnull align 8 dereferenceable(8) %0) #1 comdat align 2 {
  %2 = alloca ptr, align 8
  store ptr %0, ptr %2, align 8
  %3 = load ptr, ptr %2, align 8
  %4 = getelementptr inbounds nuw %"class.pxrInternal_v0_24__pxrReserved__::TfRefPtr", ptr %3, i32 0, i32 0
  %5 = load ptr, ptr %4, align 8
  ret ptr %5
}

; Function Attrs: mustprogress nounwind uwtable
define linkonce_odr void @_ZN32pxrInternal_v0_24__pxrReserved__8TfRefPtrINS_10Tf_RemnantEED2Ev(ptr noundef nonnull align 8 dereferenceable(8) %0) unnamed_addr #1 comdat align 2 personality ptr @__gxx_personality_v0 {
  %2 = alloca ptr, align 8
  store ptr %0, ptr %2, align 8
  %3 = load ptr, ptr %2, align 8
  %4 = invoke noundef ptr @_ZNK32pxrInternal_v0_24__pxrReserved__8TfRefPtrINS_10Tf_RemnantEE21_GetObjectForTrackingEv(ptr noundef nonnull align 8 dereferenceable(8) %3)
          to label %5 unwind label %10

5:                                                ; preds = %1
  invoke void @_ZN32pxrInternal_v0_24__pxrReserved__23Tf_RefPtrTracker_DeleteEPKvS1_(ptr noundef %3, ptr noundef %4)
          to label %6 unwind label %10

6:                                                ; preds = %5
  %7 = getelementptr inbounds nuw %"class.pxrInternal_v0_24__pxrReserved__::TfRefPtr", ptr %3, i32 0, i32 0
  %8 = load ptr, ptr %7, align 8
  invoke void @_ZNK32pxrInternal_v0_24__pxrReserved__8TfRefPtrINS_10Tf_RemnantEE10_RemoveRefEPKNS_9TfRefBaseE(ptr noundef nonnull align 8 dereferenceable(8) %3, ptr noundef %8)
          to label %9 unwind label %10

9:                                                ; preds = %6
  ret void

10:                                               ; preds = %6, %5, %1
  %11 = landingpad { ptr, i32 }
          catch ptr null
  %12 = extractvalue { ptr, i32 } %11, 0
  call void @__clang_call_terminate(ptr %12) #13
  unreachable
}

; Function Attrs: mustprogress nounwind uwtable
define linkonce_odr void @_ZN32pxrInternal_v0_24__pxrReserved__14PcpMapFunction5_DataC2Ev(ptr noundef nonnull align 8 dereferenceable(40) %0) unnamed_addr #1 comdat align 2 {
  %2 = alloca ptr, align 8
  store ptr %0, ptr %2, align 8
  %3 = load ptr, ptr %2, align 8
  %4 = getelementptr inbounds nuw %"struct.pxrInternal_v0_24__pxrReserved__::PcpMapFunction::_Data", ptr %3, i32 0, i32 1
  store i32 0, ptr %4, align 8
  %5 = getelementptr inbounds nuw %"struct.pxrInternal_v0_24__pxrReserved__::PcpMapFunction::_Data", ptr %3, i32 0, i32 2
  store i8 0, ptr %5, align 4
  ret void
}

; Function Attrs: mustprogress nounwind uwtable
define linkonce_odr void @_ZN32pxrInternal_v0_24__pxrReserved__8TfRefPtrINS_10Tf_RemnantEEC2Ev(ptr noundef nonnull align 8 dereferenceable(8) %0) unnamed_addr #1 comdat align 2 {
  %2 = alloca ptr, align 8
  store ptr %0, ptr %2, align 8
  %3 = load ptr, ptr %2, align 8
  %4 = getelementptr inbounds nuw %"class.pxrInternal_v0_24__pxrReserved__::TfRefPtr", ptr %3, i32 0, i32 0
  store ptr null, ptr %4, align 8
  %5 = call noundef ptr @_ZNK32pxrInternal_v0_24__pxrReserved__8TfRefPtrINS_10Tf_RemnantEE21_GetObjectForTrackingEv(ptr noundef nonnull align 8 dereferenceable(8) %3)
  call void @_ZN32pxrInternal_v0_24__pxrReserved__20Tf_RefPtrTracker_NewEPKvS1_(ptr noundef %3, ptr noundef %5)
  ret void
}

; Function Attrs: mustprogress nounwind uwtable
define linkonce_odr void @_ZN32pxrInternal_v0_24__pxrReserved__9TfWeakPtrINS_8SdfLayerEED2Ev(ptr noundef nonnull align 8 dereferenceable(16) %0) unnamed_addr #1 comdat align 2 {
  %2 = alloca ptr, align 8
  store ptr %0, ptr %2, align 8
  %3 = load ptr, ptr %2, align 8
  %4 = getelementptr inbounds nuw %"class.pxrInternal_v0_24__pxrReserved__::TfWeakPtr", ptr %3, i32 0, i32 1
  call void @_ZN32pxrInternal_v0_24__pxrReserved__8TfRefPtrINS_10Tf_RemnantEED2Ev(ptr noundef nonnull align 8 dereferenceable(8) %4) #12
  ret void
}

; Function Attrs: mustprogress uwtable
define linkonce_odr void @_ZN32pxrInternal_v0_24__pxrReserved__14PcpMapFunctionC2Ev(ptr noundef nonnull align 8 dereferenceable(56) %0) unnamed_addr #0 comdat align 2 personality ptr @__gxx_personality_v0 {
  %2 = alloca ptr, align 8
  %3 = alloca ptr, align 8
  %4 = alloca i32, align 4
  store ptr %0, ptr %2, align 8
  %5 = load ptr, ptr %2, align 8
  %6 = getelementptr inbounds nuw %"class.pxrInternal_v0_24__pxrReserved__::PcpMapFunction", ptr %5, i32 0, i32 0
  call void @_ZN32pxrInternal_v0_24__pxrReserved__14PcpMapFunction5_DataC2Ev(ptr noundef nonnull align 8 dereferenceable(40) %6)
  %7 = getelementptr inbounds nuw %"class.pxrInternal_v0_24__pxrReserved__::PcpMapFunction", ptr %5, i32 0, i32 1
  invoke void @_ZN32pxrInternal_v0_24__pxrReserved__14SdfLayerOffsetC1Edd(ptr noundef nonnull align 8 dereferenceable(16) %7, double noundef 0.000000e+00, double noundef 1.000000e+00)
          to label %8 unwind label %9

8:                                                ; preds = %1
  ret void

9:                                                ; preds = %1
  %10 = landingpad { ptr, i32 }
          cleanup
  %11 = extractvalue { ptr, i32 } %10, 0
  store ptr %11, ptr %3, align 8
  %12 = extractvalue { ptr, i32 } %10, 1
  store i32 %12, ptr %4, align 4
  call void @_ZN32pxrInternal_v0_24__pxrReserved__14PcpMapFunction5_DataD2Ev(ptr noundef nonnull align 8 dereferenceable(40) %6) #12
  br label %13

13:                                               ; preds = %9
  %14 = load ptr, ptr %3, align 8
  %15 = load i32, ptr %4, align 4
  %16 = insertvalue { ptr, i32 } poison, ptr %14, 0
  %17 = insertvalue { ptr, i32 } %16, i32 %15, 1
  resume { ptr, i32 } %17
}

; Function Attrs: mustprogress uwtable
define linkonce_odr void @_ZN32pxrInternal_v0_24__pxrReserved__9TfWeakPtrINS_8SdfLayerEEC2Ev(ptr noundef nonnull align 8 dereferenceable(16) %0) unnamed_addr #0 comdat align 2 {
  %2 = alloca ptr, align 8
  store ptr %0, ptr %2, align 8
  %3 = load ptr, ptr %2, align 8
  %4 = getelementptr inbounds nuw %"class.pxrInternal_v0_24__pxrReserved__::TfWeakPtr", ptr %3, i32 0, i32 0
  store ptr null, ptr %4, align 8
  %5 = getelementptr inbounds nuw %"class.pxrInternal_v0_24__pxrReserved__::TfWeakPtr", ptr %3, i32 0, i32 1
  call void @_ZN32pxrInternal_v0_24__pxrReserved__8TfRefPtrINS_10Tf_RemnantEEC2Ev(ptr noundef nonnull align 8 dereferenceable(8) %5)
  ret void
}

; Function Attrs: mustprogress uwtable
define void @_ZN32pxrInternal_v0_24__pxrReserved__13UsdEditTargetC2Ev(ptr noundef nonnull align 8 dereferenceable(72) %0) unnamed_addr #0 align 2 personality ptr @__gxx_personality_v0 {
  %2 = alloca ptr, align 8
  %3 = alloca ptr, align 8
  %4 = alloca i32, align 4
  store ptr %0, ptr %2, align 8
  %5 = load ptr, ptr %2, align 8
  %6 = getelementptr inbounds nuw %"class.pxrInternal_v0_24__pxrReserved__::UsdEditTarget", ptr %5, i32 0, i32 0
  call void @_ZN32pxrInternal_v0_24__pxrReserved__9TfWeakPtrINS_8SdfLayerEEC2Ev(ptr noundef nonnull align 8 dereferenceable(16) %6)
  %7 = getelementptr inbounds nuw %"class.pxrInternal_v0_24__pxrReserved__::UsdEditTarget", ptr %5, i32 0, i32 1
  invoke void @_ZN32pxrInternal_v0_24__pxrReserved__14PcpMapFunctionC2Ev(ptr noundef nonnull align 8 dereferenceable(56) %7)
          to label %8 unwind label %9

8:                                                ; preds = %1
  ret void

9:                                                ; preds = %1
  %10 = landingpad { ptr, i32 }
          cleanup
  %11 = extractvalue { ptr, i32 } %10, 0
  store ptr %11, ptr %3, align 8
  %12 = extractvalue { ptr, i32 } %10, 1
  store i32 %12, ptr %4, align 4
  call void @_ZN32pxrInternal_v0_24__pxrReserved__9TfWeakPtrINS_8SdfLayerEED2Ev(ptr noundef nonnull align 8 dereferenceable(16) %6) #12
  br label %13

13:                                               ; preds = %9
  %14 = load ptr, ptr %3, align 8
  %15 = load i32, ptr %4, align 4
  %16 = insertvalue { ptr, i32 } poison, ptr %14, 0
  %17 = insertvalue { ptr, i32 } %16, i32 %15, 1
  resume { ptr, i32 } %17
}